; Function Attrs: mustprogress nofree norecurse nosync nounwind willreturn memory(read, inaccessiblemem: none) uwtable
define noundef zeroext i1 @_ZN6casadi8is_rangeERKSt6vectorIxSaIxEExxx(ptr noundef nonnull readonly align 8 captures(none) dereferenceable(24) %0, i64 noundef %1, i64 noundef %2, i64 noundef %3) local_unnamed_addr #8 {
  %5 = sub nsw i64 %2, %1
  %6 = sdiv i64 %5, %3
  %7 = srem i64 %5, %3
  %8 = icmp ne i64 %7, 0
  %9 = zext i1 %8 to i64
  %10 = add nsw i64 %6, %9
  %11 = getelementptr inbounds nuw i8, ptr %0, i64 8
  %12 = load ptr, ptr %11, align 8, !tbaa !31
  %13 = load ptr, ptr %0, align 8, !tbaa !34
  %14 = ptrtoint ptr %12 to i64
  %15 = ptrtoint ptr %13 to i64
  %16 = sub i64 %14, %15
  %17 = ashr exact i64 %16, 3
  %.not = icmp eq i64 %17, %10
  br i1 %.not, label %.preheader, label %.critedge

.preheader:                                       ; preds = %4
  %.not2728 = icmp eq ptr %13, %12
  br i1 %.not2728, label %.critedge, label %.lr.ph

.lr.ph:                                           ; preds = %.preheader, %.lr.ph
  %.02130 = phi i64 [ %19, %.lr.ph ], [ %1, %.preheader ]
  %.sroa.024.029 = phi ptr [ %20, %.lr.ph ], [ %13, %.preheader ]
  %18 = load i64, ptr %.sroa.024.029, align 8, !tbaa !40
  %.not23 = icmp eq i64 %18, %.02130
  %19 = add nsw i64 %.02130, %3
  %20 = getelementptr inbounds nuw i8, ptr %.sroa.024.029, i64 8
  %.not27 = icmp ne ptr %20, %12
  %or.cond.not = select i1 %.not23, i1 %.not27, i1 false
  br i1 %or.cond.not, label %.lr.ph, label %.critedge

.critedge:                                        ; preds = %.lr.ph, %.preheader, %4
  %.0 = phi i1 [ false, %4 ], [ true, %.preheader ], [ %.not23, %.lr.ph ]
  ret i1 %.0
}